target datalayout = "e-m:e-p270:32:32-p271:32:32-p272:64:64-i64:64-i128:128-f80:128-n8:16:32:64-S128"
target triple = "x86_64-pc-linux-gnu"

%struct.err_state_st = type { [16 x %struct.err_error_st], i32, i32, ptr }
%struct.err_error_st = type { ptr, ptr, i32, i16, i8 }

; Function Attrs: nounwind uwtable
define internal ptr @err_get_state() #0 {
  %1 = alloca ptr, align 8
  %2 = alloca ptr, align 8
  %3 = alloca i32, align 4
  call void @llvm.lifetime.start.p0(i64 8, ptr %2) #12
  %4 = call ptr @CRYPTO_get_thread_local(i32 noundef 0)
  store ptr %4, ptr %2, align 8, !tbaa !15
  %5 = load ptr, ptr %2, align 8, !tbaa !15
  %6 = icmp eq ptr %5, null
  br i1 %6, label %7, label %19

7:                                                ; preds = %0
  %8 = call noalias ptr @malloc(i64 noundef 400) #13
  store ptr %8, ptr %2, align 8, !tbaa !15
  %9 = load ptr, ptr %2, align 8, !tbaa !15
  %10 = icmp eq ptr %9, null
  br i1 %10, label %11, label %12

11:                                               ; preds = %7
  store ptr null, ptr %1, align 8
  store i32 1, ptr %3, align 4
  br label %21

12:                                               ; preds = %7
  %13 = load ptr, ptr %2, align 8, !tbaa !15
  call void @llvm.memset.p0.i64(ptr align 8 %13, i8 0, i64 400, i1 false)
  %14 = load ptr, ptr %2, align 8, !tbaa !15
  %15 = call i32 @CRYPTO_set_thread_local(i32 noundef 0, ptr noundef %14, ptr noundef @err_state_free)
  %16 = icmp ne i32 %15, 0
  br i1 %16, label %18, label %17

17:                                               ; preds = %12
  store ptr null, ptr %1, align 8
  store i32 1, ptr %3, align 4
  br label %21

18:                                               ; preds = %12
  br label %19

19:                                               ; preds = %18, %0
  %20 = load ptr, ptr %2, align 8, !tbaa !15
  store ptr %20, ptr %1, align 8
  store i32 1, ptr %3, align 4
  br label %21

21:                                               ; preds = %19, %17, %11
  call void @llvm.lifetime.end.p0(i64 8, ptr %2) #12
  %22 = load ptr, ptr %1, align 8
  ret ptr %22
}

; Function Attrs: nounwind uwtable
define hidden i32 @ERR_set_mark() #0 {
  %1 = alloca i32, align 4
  %2 = alloca ptr, align 8
  %3 = alloca i32, align 4
  call void @llvm.lifetime.start.p0(i64 8, ptr %2) #12
  %4 = call ptr @err_get_state()
  store ptr %4, ptr %2, align 8, !tbaa !15
  %5 = load ptr, ptr %2, align 8, !tbaa !15
  %6 = icmp eq ptr %5, null
  br i1 %6, label %15, label %7

7:                                                ; preds = %0
  %8 = load ptr, ptr %2, align 8, !tbaa !15
  %9 = getelementptr inbounds nuw %struct.err_state_st, ptr %8, i32 0, i32 2
  %10 = load i32, ptr %9, align 4, !tbaa !17
  %11 = load ptr, ptr %2, align 8, !tbaa !15
  %12 = getelementptr inbounds nuw %struct.err_state_st, ptr %11, i32 0, i32 1
  %13 = load i32, ptr %12, align 8, !tbaa !19
  %14 = icmp eq i32 %10, %13
  br i1 %14, label %15, label %16

15:                                               ; preds = %7, %0
  store i32 0, ptr %1, align 4
  store i32 1, ptr %3, align 4
  br label %29

16:                                               ; preds = %7
  %17 = load ptr, ptr %2, align 8, !tbaa !15
  %18 = getelementptr inbounds nuw %struct.err_state_st, ptr %17, i32 0, i32 0
  %19 = load ptr, ptr %2, align 8, !tbaa !15
  %20 = getelementptr inbounds nuw %struct.err_state_st, ptr %19, i32 0, i32 1
  %21 = load i32, ptr %20, align 8, !tbaa !19
  %22 = zext i32 %21 to i64
  %23 = getelementptr inbounds nuw [16 x %struct.err_error_st], ptr %18, i64 0, i64 %22
  %24 = getelementptr inbounds nuw %struct.err_error_st, ptr %23, i32 0, i32 4
  %25 = load i8, ptr %24, align 2, !tbaa !30
  %26 = zext i8 %25 to i32
  %27 = or i32 %26, 32
  %28 = trunc i32 %27 to i8
  store i8 %28, ptr %24, align 2, !tbaa !30
  store i32 1, ptr %1, align 4
  store i32 1, ptr %3, align 4
  br label %29

29:                                               ; preds = %16, %15
  call void @llvm.lifetime.end.p0(i64 8, ptr %2) #12
  %30 = load i32, ptr %1, align 4
  ret i32 %30
}