; Function Attrs: nounwind uwtable
define hidden range(i32 0, 2) i32 @ERR_set_mark() local_unnamed_addr #0 {
  %1 = tail call ptr @CRYPTO_get_thread_local(i32 noundef 0) #17
  %2 = icmp eq ptr %1, null
  br i1 %2, label %3, label %err_get_state.exit

3:                                                ; preds = %0
  %calloc.i = tail call dereferenceable_or_null(400) ptr @calloc(i64 1, i64 400)
  %4 = icmp eq ptr %calloc.i, null
  br i1 %4, label %err_get_state.exit.thread, label %5

5:                                                ; preds = %3
  %6 = tail call i32 @CRYPTO_set_thread_local(i32 noundef 0, ptr noundef nonnull %calloc.i, ptr noundef nonnull @err_state_free) #17
  %.not.i = icmp eq i32 %6, 0
  br i1 %.not.i, label %err_get_state.exit.thread, label %err_get_state.exit

err_get_state.exit:                               ; preds = %0, %5
  %.06.i = phi ptr [ %1, %0 ], [ %calloc.i, %5 ]
  %7 = getelementptr inbounds nuw i8, ptr %.06.i, i64 388
  %8 = load i32, ptr %7, align 4, !tbaa !6
  %9 = getelementptr inbounds nuw i8, ptr %.06.i, i64 384
  %10 = load i32, ptr %9, align 8, !tbaa !12
  %11 = icmp eq i32 %8, %10
  br i1 %11, label %err_get_state.exit.thread, label %12

12:                                               ; preds = %err_get_state.exit
  %13 = zext i32 %10 to i64
  %14 = getelementptr inbounds nuw [16 x %struct.err_error_st], ptr %.06.i, i64 0, i64 %13, i32 4
  %15 = load i8, ptr %14, align 2, !tbaa !17
  %16 = or i8 %15, 32
  store i8 %16, ptr %14, align 2, !tbaa !17
  br label %err_get_state.exit.thread

err_get_state.exit.thread:                        ; preds = %5, %3, %err_get_state.exit, %12
  %.0 = phi i32 [ 1, %12 ], [ 0, %err_get_state.exit ], [ 0, %3 ], [ 0, %5 ]
  ret i32 %.0
}